target datalayout = "e-m:e-p270:32:32-p271:32:32-p272:64:64-i64:64-i128:128-f80:128-n8:16:32:64-S128"
target triple = "x86_64-pc-linux-gnu"

%struct.bio_st = type { ptr, ptr, ptr, ptr, ptr, i32, i32, i32, i32, i32, ptr, ptr, ptr, %struct.CRYPTO_REF_COUNT, i64, i64, %struct.crypto_ex_data_st }
%struct.CRYPTO_REF_COUNT = type { i32 }
%struct.crypto_ex_data_st = type { ptr, ptr }
%struct.bio_dgram_pair_st = type { ptr, %struct.ring_buf, i64, i64, i32, ptr, ptr, i8 }
%struct.ring_buf = type { ptr, i64, i64, [2 x i64] }

@.str.2 = private unnamed_addr constant [39 x i8] c"../openssl/crypto/bio/bss_dgram_pair.c\00", align 1
@__func__.dgram_mem_read = private unnamed_addr constant [15 x i8] c"dgram_mem_read\00", align 1

; Function Attrs: nounwind uwtable
define internal i32 @dgram_mem_read(ptr noundef %0, ptr noundef %1, i32 noundef %2) #0 {
  %4 = alloca i32, align 4
  %5 = alloca ptr, align 8
  %6 = alloca ptr, align 8
  %7 = alloca i32, align 4
  %8 = alloca i32, align 4
  %9 = alloca i64, align 8
  %10 = alloca ptr, align 8
  %11 = alloca i32, align 4
  store ptr %0, ptr %5, align 8, !tbaa !12
  store ptr %1, ptr %6, align 8, !tbaa !14
  store i32 %2, ptr %7, align 4, !tbaa !10
  call void @llvm.lifetime.start.p0(i64 4, ptr %8) #8
  call void @llvm.lifetime.start.p0(i64 8, ptr %9) #8
  call void @llvm.lifetime.start.p0(i64 8, ptr %10) #8
  %12 = load ptr, ptr %5, align 8, !tbaa !12
  %13 = getelementptr inbounds nuw %struct.bio_st, ptr %12, i32 0, i32 10
  %14 = load ptr, ptr %13, align 8, !tbaa !16
  store ptr %14, ptr %10, align 8, !tbaa !23
  %15 = load i32, ptr %7, align 4, !tbaa !10
  %16 = icmp slt i32 %15, 0
  br i1 %16, label %17, label %18

17:                                               ; preds = %3
  call void @ERR_new()
  call void @ERR_set_debug(ptr noundef @.str.2, i32 noundef 1118, ptr noundef @__func__.dgram_mem_read)
  call void (i32, i32, ptr, ...) @ERR_set_error(i32 noundef 32, i32 noundef 125, ptr noundef null)
  store i32 -1, ptr %4, align 4
  store i32 1, ptr %11, align 4
  br label %50

18:                                               ; preds = %3
  %19 = load ptr, ptr %10, align 8, !tbaa !23
  %20 = getelementptr inbounds nuw %struct.bio_dgram_pair_st, ptr %19, i32 0, i32 6
  %21 = load ptr, ptr %20, align 8, !tbaa !25
  %22 = call i32 @CRYPTO_THREAD_write_lock(ptr noundef %21)
  %23 = icmp eq i32 %22, 0
  br i1 %23, label %24, label %25

24:                                               ; preds = %18
  call void @ERR_new()
  call void @ERR_set_debug(ptr noundef @.str.2, i32 noundef 1123, ptr noundef @__func__.dgram_mem_read)
  call void (i32, i32, ptr, ...) @ERR_set_error(i32 noundef 32, i32 noundef 786704, ptr noundef null)
  store i32 -1, ptr %4, align 4
  store i32 1, ptr %11, align 4
  br label %50

25:                                               ; preds = %18
  %26 = load ptr, ptr %5, align 8, !tbaa !12
  %27 = load ptr, ptr %6, align 8, !tbaa !14
  %28 = load i32, ptr %7, align 4, !tbaa !10
  %29 = sext i32 %28 to i64
  %30 = call i64 @dgram_pair_read_actual(ptr noundef %26, ptr noundef %27, i64 noundef %29, ptr noundef null, ptr noundef null, i32 noundef 0)
  store i64 %30, ptr %9, align 8, !tbaa !8
  %31 = load i64, ptr %9, align 8, !tbaa !8
  %32 = icmp slt i64 %31, 0
  br i1 %32, label %33, label %41

33:                                               ; preds = %25
  %34 = load i64, ptr %9, align 8, !tbaa !8
  %35 = icmp ne i64 %34, -112
  br i1 %35, label %36, label %40

36:                                               ; preds = %33
  call void @ERR_new()
  call void @ERR_set_debug(ptr noundef @.str.2, i32 noundef 1130, ptr noundef @__func__.dgram_mem_read)
  %37 = load i64, ptr %9, align 8, !tbaa !8
  %38 = sub nsw i64 0, %37
  %39 = trunc i64 %38 to i32
  call void (i32, i32, ptr, ...) @ERR_set_error(i32 noundef 32, i32 noundef %39, ptr noundef null)
  br label %40

40:                                               ; preds = %36, %33
  store i32 -1, ptr %8, align 4, !tbaa !10
  br label %44

41:                                               ; preds = %25
  %42 = load i64, ptr %9, align 8, !tbaa !8
  %43 = trunc i64 %42 to i32
  store i32 %43, ptr %8, align 4, !tbaa !10
  br label %44

44:                                               ; preds = %41, %40
  %45 = load ptr, ptr %10, align 8, !tbaa !23
  %46 = getelementptr inbounds nuw %struct.bio_dgram_pair_st, ptr %45, i32 0, i32 6
  %47 = load ptr, ptr %46, align 8, !tbaa !25
  %48 = call i32 @CRYPTO_THREAD_unlock(ptr noundef %47)
  %49 = load i32, ptr %8, align 4, !tbaa !10
  store i32 %49, ptr %4, align 4
  store i32 1, ptr %11, align 4
  br label %50

50:                                               ; preds = %44, %24, %17
  call void @llvm.lifetime.end.p0(i64 8, ptr %10) #8
  call void @llvm.lifetime.end.p0(i64 8, ptr %9) #8
  call void @llvm.lifetime.end.p0(i64 4, ptr %8) #8
  %51 = load i32, ptr %4, align 4
  ret i32 %51
}