; Function Attrs: nounwind uwtable
define internal i32 @dgram_mem_read(ptr noundef %0, ptr noundef captures(address) %1, i32 noundef %2) #1 {
  %4 = icmp slt i32 %2, 0
  br i1 %4, label %5, label %6

5:                                                ; preds = %3
  tail call void @ERR_new() #7
  tail call void @ERR_set_debug(ptr noundef nonnull @.str.2, i32 noundef 1118, ptr noundef nonnull @__func__.dgram_mem_read) #7
  tail call void (i32, i32, ptr, ...) @ERR_set_error(i32 noundef 32, i32 noundef 125, ptr noundef null) #7
  br label %27

6:                                                ; preds = %3
  %7 = getelementptr inbounds nuw i8, ptr %0, i64 64
  %8 = load ptr, ptr %7, align 8, !tbaa !8
  %9 = getelementptr inbounds nuw i8, ptr %8, i64 80
  %10 = load ptr, ptr %9, align 8, !tbaa !18
  %11 = tail call i32 @CRYPTO_THREAD_write_lock(ptr noundef %10) #7
  %12 = icmp eq i32 %11, 0
  br i1 %12, label %13, label %14

13:                                               ; preds = %6
  tail call void @ERR_new() #7
  tail call void @ERR_set_debug(ptr noundef nonnull @.str.2, i32 noundef 1123, ptr noundef nonnull @__func__.dgram_mem_read) #7
  tail call void (i32, i32, ptr, ...) @ERR_set_error(i32 noundef 32, i32 noundef 786704, ptr noundef null) #7
  br label %27

14:                                               ; preds = %6
  %15 = zext nneg i32 %2 to i64
  %16 = tail call fastcc i64 @dgram_pair_read_actual(ptr noundef nonnull %0, ptr noundef %1, i64 noundef %15, ptr noundef null, ptr noundef null, i32 noundef 0)
  %17 = icmp slt i64 %16, 0
  br i1 %17, label %18, label %22

18:                                               ; preds = %14
  %.not = icmp eq i64 %16, -112
  br i1 %.not, label %24, label %19

19:                                               ; preds = %18
  tail call void @ERR_new() #7
  tail call void @ERR_set_debug(ptr noundef nonnull @.str.2, i32 noundef 1130, ptr noundef nonnull @__func__.dgram_mem_read) #7
  %20 = trunc i64 %16 to i32
  %21 = sub i32 0, %20
  tail call void (i32, i32, ptr, ...) @ERR_set_error(i32 noundef 32, i32 noundef %21, ptr noundef null) #7
  br label %24

22:                                               ; preds = %14
  %23 = trunc i64 %16 to i32
  br label %24

24:                                               ; preds = %18, %19, %22
  %.012 = phi i32 [ %23, %22 ], [ -1, %19 ], [ -1, %18 ]
  %25 = load ptr, ptr %9, align 8, !tbaa !18
  %26 = tail call i32 @CRYPTO_THREAD_unlock(ptr noundef %25) #7
  br label %27

27:                                               ; preds = %24, %13, %5
  %.0 = phi i32 [ -1, %5 ], [ -1, %13 ], [ %.012, %24 ]
  ret i32 %.0
}